Certificate:
    Data:
        Version: 3 (0x2)
        Serial Number: 1 (0x1)
        Signature Algorithm: sha1WithRSAEncryption
        Issuer: C=TW, ST=KS, L=Kaohsiung, O=NSYSU, OU=lis, CN=NSYSU CA/name=nsysuvpn/emailAddress=lislib@mail.nsysu.edu.tw
        Validity
            Not Before: Feb 26 08:41:30 2021 GMT
            Not After : Feb 24 08:41:30 2031 GMT
        Subject: C=TW, ST=KS, L=Kaohsiung, O=NSYSU, OU=lis, CN=server/name=nsysuvpn
        Subject Public Key Info:
            Public Key Algorithm: rsaEncryption
                RSA Public-Key: (4096 bit)
                Modulus:
                    00:b5:4e:df:e2:5d:86:2b:b8:82:84:61:50:7d:ba:
                    60:43:ac:cb:29:48:c3:4d:e0:bc:bd:eb:b2:eb:52:
                    a1:b0:b7:22:fe:10:1d:e8:1f:84:85:6c:39:e9:95:
                    3d:ce:50:70:77:28:ee:67:94:b9:1c:47:64:02:42:
                    73:46:26:98:8c:1c:5d:46:9e:58:d8:c2:f7:f4:fe:
                    ff:3d:a1:47:78:0b:d1:d2:07:b8:0b:7c:af:8b:b4:
                    d2:6c:5b:f2:8d:1b:a8:eb:d0:3c:f9:9f:fa:e0:14:
                    ac:bf:1c:27:6e:c3:ab:ad:9d:34:0a:d3:3d:07:9a:
                    4f:78:f4:29:b5:10:d8:33:3e:31:21:51:a3:ef:9e:
                    1f:4f:2d:02:35:85:6c:5b:71:17:55:4a:db:1a:9f:
                    23:df:13:3c:d6:0c:86:01:67:35:33:dd:67:5d:29:
                    f3:48:f1:7a:37:52:e7:d1:96:82:7d:d3:ba:f9:b3:
                    ac:13:4e:18:bf:27:72:77:a2:0d:a7:72:16:20:e3:
                    02:78:c5:10:87:fb:3b:cd:87:83:fc:12:92:50:37:
                    0f:1d:58:77:8b:b8:fa:a9:f8:e4:8d:23:8b:57:14:
                    47:6a:14:10:92:62:5a:34:e5:ac:f1:56:cb:9b:7e:
                    bb:90:80:13:11:60:70:c3:4a:34:98:84:0f:60:ad:
                    22:a3:a4:0c:20:9c:bc:b8:fa:f9:22:85:a9:4f:86:
                    e0:35:1d:38:b8:06:3c:d6:c3:11:0a:e8:7e:5e:0b:
                    7b:f2:84:bf:cf:ff:e4:bd:db:a1:be:6b:c6:eb:7b:
                    87:67:ae:00:b1:13:15:25:6c:33:90:ff:cc:04:b2:
                    e6:d2:6e:11:2a:dc:a2:55:2b:ce:d7:53:6c:e7:ad:
                    cc:5a:9c:1c:6e:4d:2c:f8:e9:30:32:b6:4b:e4:4f:
                    72:8b:cf:09:f6:9a:f8:13:7a:63:ce:d1:5f:8f:ef:
                    2f:2c:21:3f:ac:62:39:81:0b:33:98:92:8c:ff:a9:
                    f6:5a:bb:f2:3f:57:69:85:fb:a6:cc:31:c1:c6:9e:
                    67:5c:a6:5e:72:71:ff:93:9b:1c:b2:c7:e4:64:a3:
                    d8:34:4b:96:5b:38:3e:e9:a3:1a:40:8e:a0:b0:e1:
                    e8:50:4b:58:88:ed:f7:3e:d2:7d:29:d6:9f:a9:7d:
                    c2:7b:35:bf:1c:7d:a2:82:0a:ae:bd:b6:c5:14:45:
                    e2:af:72:b0:f6:5c:a0:16:8c:5e:21:15:13:44:4c:
                    61:32:9c:0b:6d:5e:a4:5f:5a:04:ea:7c:92:18:bd:
                    13:0f:f2:7e:b9:f1:85:f4:cf:72:5c:33:b9:c8:df:
                    85:7d:55:82:5e:51:84:f4:88:09:dd:26:e7:09:fe:
                    d7:48:6b
                Exponent: 65537 (0x10001)
        X509v3 extensions:
            X509v3 Basic Constraints: 
                CA:FALSE
            Netscape Cert Type: 
                SSL Server
            Netscape Comment: 
                Easy-RSA Generated Server Certificate
            X509v3 Subject Key Identifier: 
                92:98:A6:B1:B3:83:26:0B:97:96:1C:B7:70:FD:8E:FC:1C:31:E1:CD
            X509v3 Authority Key Identifier: 
                keyid:C5:BC:8B:54:88:B8:9B:A7:1F:34:EA:C7:05:45:7A:A3:D4:F9:B9:DD
                DirName:/C=TW/ST=KS/L=Kaohsiung/O=NSYSU/OU=lis/CN=NSYSU CA/name=nsysuvpn/emailAddress=lislib@mail.nsysu.edu.tw
                serial:7E:E2:E3:CF:D6:40:28:81:A6:D0:2C:DD:FF:09:DE:7F:F8:C4:76:B2

            X509v3 Extended Key Usage: 
                TLS Web Server Authentication
            X509v3 Key Usage: 
                Digital Signature, Key Encipherment
    Signature Algorithm: sha1WithRSAEncryption
         aa:f7:09:cd:ed:80:6c:58:b5:36:27:b2:a7:b8:e2:3c:fd:44:
         1f:ae:dc:f5:36:f1:05:c1:9a:d4:89:25:5a:8e:32:8f:02:50:
         ae:59:b7:be:4e:3a:aa:c6:7a:63:e7:f3:c1:e2:47:b8:49:4a:
         98:d2:3e:29:e8:16:2c:5d:41:d5:ee:ae:33:c7:2a:7e:20:43:
         50:ac:30:1c:88:bc:0a:20:51:2a:8b:97:13:81:47:39:0e:26:
         b3:7b:ad:a0:5c:c2:52:a6:c3:29:4a:10:6e:4d:ba:bd:c6:62:
         02:2b:c9:84:b5:96:63:86:ab:51:df:20:24:d0:7b:8f:3e:7b:
         6e:0d:e4:da:0f:8c:e4:9a:b8:60:62:fc:51:f9:2c:08:e8:00:
         67:de:71:11:82:c6:c8:47:26:bf:a4:08:f8:73:76:b2:b9:ee:
         dc:56:8a:9a:da:ae:ea:50:4c:9a:2d:2b:c5:df:8b:76:74:c9:
         49:86:4d:4d:35:8a:3a:56:9b:91:fd:2a:97:d1:23:82:40:96:
         04:66:14:8b:79:4f:ae:95:66:0c:23:42:76:36:dc:a4:74:cf:
         8e:b4:42:44:da:18:56:c6:42:84:95:80:58:43:d7:72:e7:42:
         9a:b7:b4:db:35:29:b4:5f:57:b5:8a:b2:d4:dd:ea:78:0f:c8:
         aa:71:8a:b1:f6:af:03:b8:d6:be:74:f9:c8:11:7b:d8:43:07:
         c6:5a:ea:e3:2c:f5:48:99:94:5f:10:f4:e8:78:48:22:47:ff:
         7a:95:c7:b9:dd:24:74:e3:4d:07:3c:79:a0:c3:93:f9:18:aa:
         1d:82:4c:83:a9:9d:af:da:17:20:27:d0:a7:ea:d8:9f:01:36:
         30:67:3f:d8:7a:4f:62:fc:ec:a2:bd:e6:3a:03:12:a3:d7:88:
         a1:f7:16:d1:7f:73:12:51:d9:37:20:e8:74:b0:bc:f5:09:69:
         8f:2e:ef:02:4c:b8:83:94:2a:a7:e6:9e:0b:90:4e:f5:62:12:
         67:97:4c:8f:f4:8d:a1:18:25:3d:69:38:93:7c:88:cd:6b:f5:
         65:56:d9:84:af:24:5a:c5:e3:6f:4f:79:72:4e:fa:67:49:77:
         c4:cc:de:98:5b:e2:f7:1a:64:9e:98:5f:77:e2:41:e4:95:ce:
         9b:3e:3c:e3:ef:4c:69:0d:d7:41:57:14:0a:ba:27:9e:be:08:
         5b:1c:2d:26:68:69:8d:6b:9d:08:ae:e9:fb:e4:ac:d9:cf:89:
         68:59:e8:0a:85:f6:ef:9c:c5:5f:86:73:cd:e7:c0:00:6d:d2:
         18:c3:e2:e8:be:1d:42:b3:4c:32:e2:fd:14:a5:a2:33:c2:68:
         4e:42:57:b8:e3:3e:cb:33
-----BEGIN CERTIFICATE-----
MIIHADCCBOigAwIBAgIBATANBgkqhkiG9w0BAQUFADCBmzELMAkGA1UEBhMCVFcx
CzAJBgNVBAgTAktTMRIwEAYDVQQHEwlLYW9oc2l1bmcxDjAMBgNVBAoTBU5TWVNV
MQwwCgYDVQQLEwNsaXMxETAPBgNVBAMTCE5TWVNVIENBMREwDwYDVQQpEwhuc3lz
dXZwbjEnMCUGCSqGSIb3DQEJARYYbGlzbGliQG1haWwubnN5c3UuZWR1LnR3MB4X
DTIxMDIyNjA4NDEzMFoXDTMxMDIyNDA4NDEzMFowcDELMAkGA1UEBhMCVFcxCzAJ
BgNVBAgTAktTMRIwEAYDVQQHEwlLYW9oc2l1bmcxDjAMBgNVBAoTBU5TWVNVMQww
CgYDVQQLEwNsaXMxDzANBgNVBAMTBnNlcnZlcjERMA8GA1UEKRMIbnN5c3V2cG4w
ggIiMA0GCSqGSIb3DQEBAQUAA4ICDwAwggIKAoICAQC1Tt/iXYYruIKEYVB9umBD
rMspSMNN4Ly967LrUqGwtyL+EB3oH4SFbDnplT3OUHB3KO5nlLkcR2QCQnNGJpiM
HF1GnljYwvf0/v89oUd4C9HSB7gLfK+LtNJsW/KNG6jr0Dz5n/rgFKy/HCduw6ut
nTQK0z0Hmk949Cm1ENgzPjEhUaPvnh9PLQI1hWxbcRdVStsanyPfEzzWDIYBZzUz
3WddKfNI8Xo3UufRloJ907r5s6wTThi/J3J3og2nchYg4wJ4xRCH+zvNh4P8EpJQ
Nw8dWHeLuPqp+OSNI4tXFEdqFBCSYlo05azxVsubfruQgBMRYHDDSjSYhA9grSKj
pAwgnLy4+vkihalPhuA1HTi4BjzWwxEK6H5eC3vyhL/P/+S926G+a8bre4dnrgCx
ExUlbDOQ/8wEsubSbhEq3KJVK87XU2znrcxanBxuTSz46TAytkvkT3KLzwn2mvgT
emPO0V+P7y8sIT+sYjmBCzOYkoz/qfZau/I/V2mF+6bMMcHGnmdcpl5ycf+Tmxyy
x+Rko9g0S5ZbOD7poxpAjqCw4ehQS1iI7fc+0n0p1p+pfcJ7Nb8cfaKCCq69tsUU
ReKvcrD2XKAWjF4hFRNETGEynAttXqRfWgTqfJIYvRMP8n658YX0z3JcM7nI34V9
VYJeUYT0iAndJucJ/tdIawIDAQABo4IBdzCCAXMwCQYDVR0TBAIwADARBglghkgB
hvhCAQEEBAMCBkAwNAYJYIZIAYb4QgENBCcWJUVhc3ktUlNBIEdlbmVyYXRlZCBT
ZXJ2ZXIgQ2VydGlmaWNhdGUwHQYDVR0OBBYEFJKYprGzgyYLl5Yct3D9jvwcMeHN
MIHbBgNVHSMEgdMwgdCAFMW8i1SIuJunHzTqxwVFeqPU+bndoYGhpIGeMIGbMQsw
CQYDVQQGEwJUVzELMAkGA1UECBMCS1MxEjAQBgNVBAcTCUthb2hzaXVuZzEOMAwG
A1UEChMFTlNZU1UxDDAKBgNVBAsTA2xpczERMA8GA1UEAxMITlNZU1UgQ0ExETAP
BgNVBCkTCG5zeXN1dnBuMScwJQYJKoZIhvcNAQkBFhhsaXNsaWJAbWFpbC5uc3lz
dS5lZHUudHeCFH7i48/WQCiBptAs3f8J3n/4xHayMBMGA1UdJQQMMAoGCCsGAQUF
BwMBMAsGA1UdDwQEAwIFoDANBgkqhkiG9w0BAQUFAAOCAgEAqvcJze2AbFi1Niey
p7jiPP1EH67c9TbxBcGa1IklWo4yjwJQrlm3vk46qsZ6Y+fzweJHuElKmNI+KegW
LF1B1e6uM8cqfiBDUKwwHIi8CiBRKouXE4FHOQ4ms3utoFzCUqbDKUoQbk26vcZi
AivJhLWWY4arUd8gJNB7jz57bg3k2g+M5Jq4YGL8UfksCOgAZ95xEYLGyEcmv6QI
+HN2srnu3FaKmtqu6lBMmi0rxd+LdnTJSYZNTTWKOlabkf0ql9EjgkCWBGYUi3lP
rpVmDCNCdjbcpHTPjrRCRNoYVsZChJWAWEPXcudCmre02zUptF9XtYqy1N3qeA/I
qnGKsfavA7jWvnT5yBF72EMHxlrq4yz1SJmUXxD06HhIIkf/epXHud0kdONNBzx5
oMOT+RiqHYJMg6mdr9oXICfQp+rYnwE2MGc/2HpPYvzsor3mOgMSo9eIofcW0X9z
ElHZNyDodLC89Qlpjy7vAky4g5Qqp+aeC5BO9WISZ5dMj/SNoRglPWk4k3yIzWv1
ZVbZhK8kWsXjb095ck76Z0l3xMzemFvi9xpknphfd+JB5JXOmz484+9MaQ3XQVcU
Cronnr4IWxwtJmhpjWudCK7p++Ss2c+JaFnoCoX275zFX4ZzzefAAG3SGMPi6L4d
QrNMMuL9FKWiM8JoTkJXuOM+yzM=
-----END CERTIFICATE-----
