Certificate:
    Data:
        Version: 3 (0x2)
        Serial Number: 5 (0x5)
        Signature Algorithm: sha1WithRSAEncryption
        Issuer: C=US, ST=CA, L=SanFrancisco, O=Fort-Funston, OU=MyVPN, CN=Fort-Funston CA/name=EasyRSA/emailAddress=my@vpn.net
        Validity
            Not Before: Mar  4 05:51:21 2021 GMT
            Not After : Mar  3 05:51:21 2026 GMT
        Subject: C=US, ST=CA, L=SanFrancisco, O=Fort-Funston, OU=MyVPN, CN=revoked/name=EasyRSA/emailAddress=my@vpn.net
        Subject Public Key Info:
            Public Key Algorithm: rsaEncryption
                RSA Public-Key: (2048 bit)
                Modulus:
                    00:bd:d2:d1:c4:8f:80:c9:ef:ba:12:90:ba:8f:1f:
                    7d:dd:b4:f1:e9:3b:ca:5a:fc:7a:22:89:60:0b:3a:
                    0b:65:3c:f2:9b:56:96:d7:96:ee:59:11:f7:52:3d:
                    4b:fa:19:cc:7b:97:b7:cd:90:db:51:17:89:dc:c8:
                    12:e1:4b:be:e4:fc:28:b8:c9:a0:7c:3c:c9:d9:00:
                    9e:30:01:48:3c:de:11:ef:d0:29:c1:0f:57:78:14:
                    73:7f:9a:f6:8c:e5:ea:22:92:82:9f:3a:45:d7:1e:
                    20:9d:27:c3:31:36:33:23:02:c4:0d:fd:c8:a8:eb:
                    e4:dc:7e:52:88:91:6b:57:65:07:52:a0:ed:2d:3b:
                    81:52:2a:6e:e4:2d:68:78:e9:fb:91:ad:a3:97:f8:
                    33:87:23:1b:63:f2:d2:79:55:6f:72:95:a2:0d:00:
                    9b:b5:dc:d3:3a:24:0f:07:75:5e:b2:db:08:03:05:
                    13:30:f3:c2:8e:88:3d:7f:c5:3d:58:42:d0:79:d9:
                    ea:ad:e7:3f:58:d6:51:7e:73:22:c6:61:5b:77:6f:
                    53:a7:e6:f2:f6:6f:94:12:a8:1d:b7:09:39:d7:e5:
                    28:28:d7:c0:91:30:07:cd:6b:62:84:32:4e:f6:66:
                    a5:b0:63:08:74:0f:d6:ae:ee:27:d8:31:12:d2:a9:
                    55:3d
                Exponent: 65537 (0x10001)
        X509v3 extensions:
            X509v3 Basic Constraints: 
                CA:FALSE
            Netscape Comment: 
                Easy-RSA Generated Certificate
            X509v3 Subject Key Identifier: 
                41:58:96:03:E2:F8:68:D7:7B:02:0F:EC:D2:39:D6:8B:58:B8:14:F5
            X509v3 Authority Key Identifier: 
                keyid:A5:DB:17:33:08:AC:CD:80:B2:62:0D:AE:D8:EF:D8:37:3A:DC:C5:08
                DirName:/C=US/ST=CA/L=SanFrancisco/O=Fort-Funston/OU=MyVPN/CN=Fort-Funston CA/name=EasyRSA/emailAddress=my@vpn.net
                serial:0D:A8:4C:6C:50:0E:5E:3A:08:D0:BA:48:B4:20:44:A3:88:21:32:45

            X509v3 Extended Key Usage: 
                TLS Web Client Authentication
            X509v3 Key Usage: 
                Digital Signature
    Signature Algorithm: sha1WithRSAEncryption
         55:24:62:a7:77:ba:7e:2e:10:83:2e:17:c5:55:cf:c0:a6:f4:
         df:8c:1b:f9:c7:c1:d7:2a:5b:6c:90:c3:97:71:94:af:06:5f:
         78:e6:14:fb:cd:27:56:41:b1:6c:ef:9c:ed:e6:e7:54:b5:4b:
         ae:1d:f4:82:3f:6b:29:71:60:df:6e:16:c1:cf:5d:4f:98:74:
         bf:53:60:42:a2:d4:c3:ee:d1:b9:54:ff:cc:9c:69:b7:6f:18:
         4d:f4:25:56:46:84:cc:a9:96:db:46:fa:20:98:7f:0f:dc:ec:
         76:73:75:e7:d1:da:44:df:38:bd:9f:3f:90:eb:f4:67:63:ea:
         bd:ae:cd:ee:63:77:e5:b0:fc:18:5a:4d:9b:0d:af:3e:82:ae:
         b3:76:8b:c4:35:31:7e:90:d8:dd:95:49:36:cd:1e:10:08:f6:
         22:d0:4d:f7:5a:aa:e4:63:80:6f:cb:5b:b2:15:85:df:3d:9c:
         5b:04:2b:f2:9b:b1:06:94:e6:ab:c7:7d:00:68:ea:5c:f7:bc:
         71:19:5b:12:af:ba:07:d6:c2:5a:c3:5f:02:09:0f:5c:ee:8c:
         25:7c:a8:70:19:bf:fd:c9:0f:e3:eb:e5:8c:0f:aa:6d:71:f2:
         77:3b:47:76:78:d9:e3:2a:a9:bc:b1:7e:a3:35:cc:43:b2:0e:
         00:c3:ba:09
-----BEGIN CERTIFICATE-----
MIIFFjCCA/6gAwIBAgIBBTANBgkqhkiG9w0BAQUFADCBnzELMAkGA1UEBhMCVVMx
CzAJBgNVBAgTAkNBMRUwEwYDVQQHEwxTYW5GcmFuY2lzY28xFTATBgNVBAoTDEZv
cnQtRnVuc3RvbjEOMAwGA1UECxMFTXlWUE4xGDAWBgNVBAMTD0ZvcnQtRnVuc3Rv
biBDQTEQMA4GA1UEKRMHRWFzeVJTQTEZMBcGCSqGSIb3DQEJARYKbXlAdnBuLm5l
dDAeFw0yMTAzMDQwNTUxMjFaFw0yNjAzMDMwNTUxMjFaMIGXMQswCQYDVQQGEwJV
UzELMAkGA1UECBMCQ0ExFTATBgNVBAcTDFNhbkZyYW5jaXNjbzEVMBMGA1UEChMM
Rm9ydC1GdW5zdG9uMQ4wDAYDVQQLEwVNeVZQTjEQMA4GA1UEAxMHcmV2b2tlZDEQ
MA4GA1UEKRMHRWFzeVJTQTEZMBcGCSqGSIb3DQEJARYKbXlAdnBuLm5ldDCCASIw
DQYJKoZIhvcNAQEBBQADggEPADCCAQoCggEBAL3S0cSPgMnvuhKQuo8ffd208ek7
ylr8eiKJYAs6C2U88ptWlteW7lkR91I9S/oZzHuXt82Q21EXidzIEuFLvuT8KLjJ
oHw8ydkAnjABSDzeEe/QKcEPV3gUc3+a9ozl6iKSgp86RdceIJ0nwzE2MyMCxA39
yKjr5Nx+UoiRa1dlB1Kg7S07gVIqbuQtaHjp+5Gto5f4M4cjG2Py0nlVb3KVog0A
m7Xc0zokDwd1XrLbCAMFEzDzwo6IPX/FPVhC0HnZ6q3nP1jWUX5zIsZhW3dvU6fm
8vZvlBKoHbcJOdflKCjXwJEwB81rYoQyTvZmpbBjCHQP1q7uJ9gxEtKpVT0CAwEA
AaOCAWEwggFdMAkGA1UdEwQCMAAwLQYJYIZIAYb4QgENBCAWHkVhc3ktUlNBIEdl
bmVyYXRlZCBDZXJ0aWZpY2F0ZTAdBgNVHQ4EFgQUQViWA+L4aNd7Ag/s0jnWi1i4
FPUwgd8GA1UdIwSB1zCB1IAUpdsXMwiszYCyYg2u2O/YNzrcxQihgaWkgaIwgZ8x
CzAJBgNVBAYTAlVTMQswCQYDVQQIEwJDQTEVMBMGA1UEBxMMU2FuRnJhbmNpc2Nv
MRUwEwYDVQQKEwxGb3J0LUZ1bnN0b24xDjAMBgNVBAsTBU15VlBOMRgwFgYDVQQD
Ew9Gb3J0LUZ1bnN0b24gQ0ExEDAOBgNVBCkTB0Vhc3lSU0ExGTAXBgkqhkiG9w0B
CQEWCm15QHZwbi5uZXSCFA2oTGxQDl46CNC6SLQgRKOIITJFMBMGA1UdJQQMMAoG
CCsGAQUFBwMCMAsGA1UdDwQEAwIHgDANBgkqhkiG9w0BAQUFAAOCAQEAVSRip3e6
fi4Qgy4XxVXPwKb034wb+cfB1ypbbJDDl3GUrwZfeOYU+80nVkGxbO+c7ebnVLVL
rh30gj9rKXFg324Wwc9dT5h0v1NgQqLUw+7RuVT/zJxpt28YTfQlVkaEzKmW20b6
IJh/D9zsdnN159HaRN84vZ8/kOv0Z2Pqva7N7mN35bD8GFpNmw2vPoKus3aLxDUx
fpDY3ZVJNs0eEAj2ItBN91qq5GOAb8tbshWF3z2cWwQr8puxBpTmq8d9AGjqXPe8
cRlbEq+6B9bCWsNfAgkPXO6MJXyocBm//ckP4+vljA+qbXHydztHdnjZ4yqpvLF+
ozXMQ7IOAMO6CQ==
-----END CERTIFICATE-----
