Certificate:
    Data:
        Version: 3 (0x2)
        Serial Number: 6 (0x6)
        Signature Algorithm: sha1WithRSAEncryption
        Issuer: C=US, ST=CA, L=SanFrancisco, O=Fort-Funston, OU=MyVPN, CN=Fort-Funston CA/name=EasyRSA/emailAddress=my@vpn.net
        Validity
            Not Before: Mar  4 05:53:28 2021 GMT
            Not After : Mar  3 05:53:28 2026 GMT
        Subject: C=US, ST=CA, L=SanFrancisco, O=Fort-Funston, OU=MyVPN, CN=client0/name=EasyRSA/emailAddress=my@vpn.net
        Subject Public Key Info:
            Public Key Algorithm: rsaEncryption
                RSA Public-Key: (2048 bit)
                Modulus:
                    00:b7:38:51:af:a7:49:e2:5c:b1:17:a9:4a:c9:8a:
                    46:86:25:f4:d7:bd:f6:a1:19:f3:21:33:8c:5f:09:
                    13:e5:86:75:84:28:de:2f:5e:5c:18:47:f2:14:8f:
                    ed:a2:0a:0b:91:9b:c4:7e:71:a0:3c:73:2a:9b:7b:
                    b3:3b:b8:87:5d:a3:1e:f7:7f:09:6a:9f:6e:78:b8:
                    74:0e:03:72:98:00:3e:d0:01:d0:be:ea:2e:09:72:
                    f1:34:30:69:00:e3:5f:96:10:ad:54:e6:e8:5a:05:
                    42:c4:3c:a3:20:1c:0b:64:b5:b8:fa:30:53:6d:14:
                    bc:fc:96:91:b4:55:68:4a:9f:11:55:ed:4f:44:9d:
                    58:e9:5f:41:26:c7:8f:75:96:99:e6:73:20:9d:11:
                    0d:64:51:1f:0f:74:9e:70:ac:3b:05:d3:9d:21:96:
                    93:dc:08:3f:db:73:e8:5b:dc:3b:0a:4e:34:00:ad:
                    30:be:36:ff:84:72:7e:b7:6f:e9:7f:07:1d:c2:d9:
                    5b:37:80:2c:39:a4:3b:cc:b9:62:50:81:1b:73:24:
                    f4:90:57:a0:85:4c:77:d4:1d:b5:1a:f8:ac:65:c9:
                    a8:78:47:26:9f:d4:61:15:e9:05:11:d9:dc:24:4d:
                    6d:2e:74:b7:0f:27:cb:96:f0:5f:dc:58:69:4e:f0:
                    60:2b
                Exponent: 65537 (0x10001)
        X509v3 extensions:
            X509v3 Basic Constraints: 
                CA:FALSE
            Netscape Comment: 
                Easy-RSA Generated Certificate
            X509v3 Subject Key Identifier: 
                B2:2D:3A:2C:F7:DB:3A:3A:39:58:E2:B0:D4:D7:A0:01:01:D6:B3:BE
            X509v3 Authority Key Identifier: 
                keyid:A5:DB:17:33:08:AC:CD:80:B2:62:0D:AE:D8:EF:D8:37:3A:DC:C5:08
                DirName:/C=US/ST=CA/L=SanFrancisco/O=Fort-Funston/OU=MyVPN/CN=Fort-Funston CA/name=EasyRSA/emailAddress=my@vpn.net
                serial:0D:A8:4C:6C:50:0E:5E:3A:08:D0:BA:48:B4:20:44:A3:88:21:32:45

            X509v3 Extended Key Usage: 
                TLS Web Client Authentication
            X509v3 Key Usage: 
                Digital Signature
    Signature Algorithm: sha1WithRSAEncryption
         7b:8a:2f:cd:2c:4d:3d:6e:b4:97:8d:a3:fb:fb:e1:b2:51:3e:
         03:bc:6a:6f:cf:92:f0:9e:06:c8:9b:a0:6e:0b:37:26:24:87:
         22:23:20:03:88:12:ba:7c:46:91:a6:cd:e5:ae:4c:26:44:e2:
         5c:9b:d8:92:76:ac:ee:ab:0b:f5:ce:aa:33:80:46:d1:17:ac:
         70:27:6e:d7:2a:e1:4b:8c:e5:d7:d9:f3:93:82:13:ce:63:ff:
         54:d0:4e:b5:80:e4:0a:ac:08:34:d7:59:eb:2a:b2:c8:41:a9:
         74:bc:6c:05:09:c4:0f:b4:d0:af:c0:70:e0:88:62:f6:65:72:
         54:8e:4f:c1:b6:65:ec:63:2a:ad:71:0b:0b:94:14:4e:ca:26:
         ab:15:40:2c:b8:5c:7e:38:5a:80:d3:6a:e4:79:61:f0:7d:90:
         7f:fb:24:bf:41:22:3f:32:50:16:2a:cf:23:76:0f:9b:3a:de:
         1f:35:a0:dd:10:58:dc:b3:fb:8a:a2:2a:fa:00:18:8e:75:53:
         22:49:fc:68:c4:98:ae:78:09:1e:02:df:f2:b6:4a:f7:13:c2:
         77:2d:e0:3a:61:17:3c:e5:e7:18:0c:31:15:5f:4e:c0:a0:52:
         d6:a4:67:d4:38:5a:ad:f8:79:5b:22:a6:4c:12:8a:17:5e:6e:
         84:07:01:93
-----BEGIN CERTIFICATE-----
MIIFFjCCA/6gAwIBAgIBBjANBgkqhkiG9w0BAQUFADCBnzELMAkGA1UEBhMCVVMx
CzAJBgNVBAgTAkNBMRUwEwYDVQQHEwxTYW5GcmFuY2lzY28xFTATBgNVBAoTDEZv
cnQtRnVuc3RvbjEOMAwGA1UECxMFTXlWUE4xGDAWBgNVBAMTD0ZvcnQtRnVuc3Rv
biBDQTEQMA4GA1UEKRMHRWFzeVJTQTEZMBcGCSqGSIb3DQEJARYKbXlAdnBuLm5l
dDAeFw0yMTAzMDQwNTUzMjhaFw0yNjAzMDMwNTUzMjhaMIGXMQswCQYDVQQGEwJV
UzELMAkGA1UECBMCQ0ExFTATBgNVBAcTDFNhbkZyYW5jaXNjbzEVMBMGA1UEChMM
Rm9ydC1GdW5zdG9uMQ4wDAYDVQQLEwVNeVZQTjEQMA4GA1UEAxMHY2xpZW50MDEQ
MA4GA1UEKRMHRWFzeVJTQTEZMBcGCSqGSIb3DQEJARYKbXlAdnBuLm5ldDCCASIw
DQYJKoZIhvcNAQEBBQADggEPADCCAQoCggEBALc4Ua+nSeJcsRepSsmKRoYl9Ne9
9qEZ8yEzjF8JE+WGdYQo3i9eXBhH8hSP7aIKC5GbxH5xoDxzKpt7szu4h12jHvd/
CWqfbni4dA4DcpgAPtAB0L7qLgly8TQwaQDjX5YQrVTm6FoFQsQ8oyAcC2S1uPow
U20UvPyWkbRVaEqfEVXtT0SdWOlfQSbHj3WWmeZzIJ0RDWRRHw90nnCsOwXTnSGW
k9wIP9tz6FvcOwpONACtML42/4Ryfrdv6X8HHcLZWzeALDmkO8y5YlCBG3Mk9JBX
oIVMd9QdtRr4rGXJqHhHJp/UYRXpBRHZ3CRNbS50tw8ny5bwX9xYaU7wYCsCAwEA
AaOCAWEwggFdMAkGA1UdEwQCMAAwLQYJYIZIAYb4QgENBCAWHkVhc3ktUlNBIEdl
bmVyYXRlZCBDZXJ0aWZpY2F0ZTAdBgNVHQ4EFgQUsi06LPfbOjo5WOKw1NegAQHW
s74wgd8GA1UdIwSB1zCB1IAUpdsXMwiszYCyYg2u2O/YNzrcxQihgaWkgaIwgZ8x
CzAJBgNVBAYTAlVTMQswCQYDVQQIEwJDQTEVMBMGA1UEBxMMU2FuRnJhbmNpc2Nv
MRUwEwYDVQQKEwxGb3J0LUZ1bnN0b24xDjAMBgNVBAsTBU15VlBOMRgwFgYDVQQD
Ew9Gb3J0LUZ1bnN0b24gQ0ExEDAOBgNVBCkTB0Vhc3lSU0ExGTAXBgkqhkiG9w0B
CQEWCm15QHZwbi5uZXSCFA2oTGxQDl46CNC6SLQgRKOIITJFMBMGA1UdJQQMMAoG
CCsGAQUFBwMCMAsGA1UdDwQEAwIHgDANBgkqhkiG9w0BAQUFAAOCAQEAe4ovzSxN
PW60l42j+/vhslE+A7xqb8+S8J4GyJugbgs3JiSHIiMgA4gSunxGkabN5a5MJkTi
XJvYknas7qsL9c6qM4BG0RescCdu1yrhS4zl19nzk4ITzmP/VNBOtYDkCqwINNdZ
6yqyyEGpdLxsBQnED7TQr8Bw4Ihi9mVyVI5PwbZl7GMqrXELC5QUTsomqxVALLhc
fjhagNNq5Hlh8H2Qf/skv0EiPzJQFirPI3YPmzreHzWg3RBY3LP7iqIq+gAYjnVT
Ikn8aMSYrngJHgLf8rZK9xPCdy3gOmEXPOXnGAwxFV9OwKBS1qRn1Dharfh5WyKm
TBKKF15uhAcBkw==
-----END CERTIFICATE-----
