Certificate:
    Data:
        Version: 3 (0x2)
        Serial Number: 7 (0x7)
        Signature Algorithm: sha1WithRSAEncryption
        Issuer: C=US, ST=CA, L=SanFrancisco, O=Fort-Funston, OU=MyVPN, CN=Fort-Funston CA/name=EasyRSA/emailAddress=my@vpn.net
        Validity
            Not Before: Mar  4 06:05:10 2021 GMT
            Not After : Mar  3 06:05:10 2026 GMT
        Subject: C=US, ST=CA, L=SanFrancisco, O=Fort-Funston, OU=MyVPN, CN=revoked/name=EasyRSA/emailAddress=my@vpn.net
        Subject Public Key Info:
            Public Key Algorithm: rsaEncryption
                RSA Public-Key: (2048 bit)
                Modulus:
                    00:c6:57:db:d8:c1:e0:14:4a:a5:5d:ce:d8:ab:0d:
                    a7:67:08:68:70:19:47:88:3e:6f:14:01:00:cc:9a:
                    b8:78:43:1c:a5:be:6e:79:4e:82:20:ba:ca:fa:39:
                    8c:a0:15:ac:dd:70:c3:23:ed:87:87:99:87:51:e4:
                    89:93:6d:bc:e8:aa:2e:e1:cf:67:66:ef:dc:37:f8:
                    14:7e:e2:fa:9d:cc:11:22:7e:ce:75:bb:c5:61:56:
                    79:d6:c4:b8:c4:cb:2f:2c:8f:8e:7c:52:0c:48:08:
                    e0:a7:eb:bd:cb:0b:9c:2f:03:ad:8d:21:b2:8f:1a:
                    27:6c:5c:98:a1:45:5d:a8:00:31:69:8d:cc:c9:9c:
                    ec:3b:d4:f1:68:74:52:2d:dd:8b:02:78:e4:8c:4f:
                    7d:a3:83:79:ad:3a:93:45:d5:9a:4f:bb:77:c8:a8:
                    a0:54:60:5f:bb:aa:63:2b:d6:7e:97:3a:c8:75:26:
                    47:65:72:b4:e7:50:2c:2b:32:c7:8d:32:fd:aa:18:
                    12:f4:ca:1e:c1:a6:7b:cf:ec:22:01:cd:10:d3:01:
                    1d:e7:19:59:34:70:1d:da:19:c5:76:1a:8f:f0:0c:
                    04:dd:7c:63:56:36:68:67:bf:41:71:13:58:bc:42:
                    0c:b0:4c:27:0c:22:4f:86:f8:c9:5f:45:e4:d8:47:
                    66:b1
                Exponent: 65537 (0x10001)
        X509v3 extensions:
            X509v3 Basic Constraints: 
                CA:FALSE
            Netscape Comment: 
                Easy-RSA Generated Certificate
            X509v3 Subject Key Identifier: 
                61:6E:31:4C:E5:7C:E9:09:C6:2E:1C:82:D1:A1:D2:3E:BA:2F:71:AA
            X509v3 Authority Key Identifier: 
                keyid:80:5F:09:0F:9B:26:AB:06:E9:AB:7B:D7:4E:26:10:A3:FF:12:C7:96
                DirName:/C=US/ST=CA/L=SanFrancisco/O=Fort-Funston/OU=MyVPN/CN=Fort-Funston CA/name=EasyRSA/emailAddress=my@vpn.net
                serial:3B:A0:0B:93:A9:87:E3:8E:52:D3:9E:A8:E2:60:DB:E1:3C:04:69:14

            X509v3 Extended Key Usage: 
                TLS Web Client Authentication
            X509v3 Key Usage: 
                Digital Signature
    Signature Algorithm: sha1WithRSAEncryption
         36:75:a0:54:83:b8:a4:3f:8c:6f:9e:90:30:b2:74:29:59:71:
         9c:03:0d:32:d1:54:c1:95:f5:3e:fb:23:5d:f4:91:25:09:54:
         63:a3:a7:6b:5f:d9:37:bb:66:f4:99:05:7f:3e:0b:e2:a2:16:
         62:d1:01:ad:42:0d:47:6f:86:42:ba:fe:4a:a0:0b:66:cf:dc:
         fe:da:80:62:18:86:10:c0:d1:52:8d:4c:42:ee:ce:78:ba:4f:
         2d:64:0f:2e:ea:6d:74:3e:ee:5a:e4:5e:7a:22:d3:2d:06:9f:
         42:16:75:b2:cd:cc:06:03:c3:bd:9c:62:0f:14:da:16:58:62:
         30:5b:f6:fa:f2:d6:ed:05:54:6b:71:50:5a:1e:52:90:76:f5:
         a7:0d:50:0e:78:5d:65:57:e3:1c:d3:3f:5e:16:d2:03:01:af:
         a9:5b:5e:b8:fd:03:89:3b:ad:bb:17:a3:2d:47:cb:2c:31:ab:
         71:6f:4b:51:f8:21:0c:d8:66:4f:3b:7d:de:dd:ab:af:68:67:
         2b:3a:ce:27:3f:ed:64:ba:65:26:7d:89:b7:a2:95:c8:d6:a8:
         41:f8:4b:71:9d:a2:f9:ee:b0:c3:5a:e7:26:47:c7:f2:b7:37:
         de:85:76:06:cd:32:f4:7e:82:7d:54:23:bc:3e:36:8d:02:5c:
         35:dd:e2:3b
-----BEGIN CERTIFICATE-----
MIIFFjCCA/6gAwIBAgIBBzANBgkqhkiG9w0BAQUFADCBnzELMAkGA1UEBhMCVVMx
CzAJBgNVBAgTAkNBMRUwEwYDVQQHEwxTYW5GcmFuY2lzY28xFTATBgNVBAoTDEZv
cnQtRnVuc3RvbjEOMAwGA1UECxMFTXlWUE4xGDAWBgNVBAMTD0ZvcnQtRnVuc3Rv
biBDQTEQMA4GA1UEKRMHRWFzeVJTQTEZMBcGCSqGSIb3DQEJARYKbXlAdnBuLm5l
dDAeFw0yMTAzMDQwNjA1MTBaFw0yNjAzMDMwNjA1MTBaMIGXMQswCQYDVQQGEwJV
UzELMAkGA1UECBMCQ0ExFTATBgNVBAcTDFNhbkZyYW5jaXNjbzEVMBMGA1UEChMM
Rm9ydC1GdW5zdG9uMQ4wDAYDVQQLEwVNeVZQTjEQMA4GA1UEAxMHcmV2b2tlZDEQ
MA4GA1UEKRMHRWFzeVJTQTEZMBcGCSqGSIb3DQEJARYKbXlAdnBuLm5ldDCCASIw
DQYJKoZIhvcNAQEBBQADggEPADCCAQoCggEBAMZX29jB4BRKpV3O2KsNp2cIaHAZ
R4g+bxQBAMyauHhDHKW+bnlOgiC6yvo5jKAVrN1wwyPth4eZh1HkiZNtvOiqLuHP
Z2bv3Df4FH7i+p3MESJ+znW7xWFWedbEuMTLLyyPjnxSDEgI4KfrvcsLnC8DrY0h
so8aJ2xcmKFFXagAMWmNzMmc7DvU8Wh0Ui3diwJ45IxPfaODea06k0XVmk+7d8io
oFRgX7uqYyvWfpc6yHUmR2VytOdQLCsyx40y/aoYEvTKHsGme8/sIgHNENMBHecZ
WTRwHdoZxXYaj/AMBN18Y1Y2aGe/QXETWLxCDLBMJwwiT4b4yV9F5NhHZrECAwEA
AaOCAWEwggFdMAkGA1UdEwQCMAAwLQYJYIZIAYb4QgENBCAWHkVhc3ktUlNBIEdl
bmVyYXRlZCBDZXJ0aWZpY2F0ZTAdBgNVHQ4EFgQUYW4xTOV86QnGLhyC0aHSProv
caowgd8GA1UdIwSB1zCB1IAUgF8JD5smqwbpq3vXTiYQo/8Sx5ahgaWkgaIwgZ8x
CzAJBgNVBAYTAlVTMQswCQYDVQQIEwJDQTEVMBMGA1UEBxMMU2FuRnJhbmNpc2Nv
MRUwEwYDVQQKEwxGb3J0LUZ1bnN0b24xDjAMBgNVBAsTBU15VlBOMRgwFgYDVQQD
Ew9Gb3J0LUZ1bnN0b24gQ0ExEDAOBgNVBCkTB0Vhc3lSU0ExGTAXBgkqhkiG9w0B
CQEWCm15QHZwbi5uZXSCFDugC5Oph+OOUtOeqOJg2+E8BGkUMBMGA1UdJQQMMAoG
CCsGAQUFBwMCMAsGA1UdDwQEAwIHgDANBgkqhkiG9w0BAQUFAAOCAQEANnWgVIO4
pD+Mb56QMLJ0KVlxnAMNMtFUwZX1PvsjXfSRJQlUY6Ona1/ZN7tm9JkFfz4L4qIW
YtEBrUINR2+GQrr+SqALZs/c/tqAYhiGEMDRUo1MQu7OeLpPLWQPLuptdD7uWuRe
eiLTLQafQhZ1ss3MBgPDvZxiDxTaFlhiMFv2+vLW7QVUa3FQWh5SkHb1pw1QDnhd
ZVfjHNM/XhbSAwGvqVteuP0DiTutuxejLUfLLDGrcW9LUfghDNhmTzt93t2rr2hn
KzrOJz/tZLplJn2Jt6KVyNaoQfhLcZ2i+e6ww1rnJkfH8rc33oV2Bs0y9H6CfVQj
vD42jQJcNd3iOw==
-----END CERTIFICATE-----
