Certificate:
    Data:
        Version: 3 (0x2)
        Serial Number: 3 (0x3)
        Signature Algorithm: sha1WithRSAEncryption
        Issuer: C=TW, ST=KS, L=Kaohsiung, O=NSYSU, OU=lis, CN=NSYSU CA/name=nsysuvpn/emailAddress=lislib@mail.nsysu.edu.tw
        Validity
            Not Before: Feb 26 08:43:29 2021 GMT
            Not After : Feb 24 08:43:29 2031 GMT
        Subject: C=TW, ST=KS, L=Kaohsiung, O=NSYSU, OU=lis, CN=client2
        Subject Public Key Info:
            Public Key Algorithm: rsaEncryption
                RSA Public-Key: (4096 bit)
                Modulus:
                    00:c1:6a:31:00:40:34:70:cf:82:ec:9a:ab:65:2b:
                    e6:c1:1d:00:af:b9:9e:6e:43:ce:03:11:b4:7b:6e:
                    90:f6:2b:b1:12:83:b7:47:05:37:b1:6d:71:a7:21:
                    ee:01:4e:eb:41:04:a9:4a:76:bd:38:fb:75:d9:7a:
                    ee:13:51:27:19:8f:d8:b6:90:38:71:6f:dd:20:e1:
                    20:3f:29:0f:38:c9:60:61:31:89:8b:a1:fa:fb:3b:
                    ea:76:3a:48:51:a2:24:8f:21:1e:58:9b:9e:ce:8a:
                    24:ee:db:4c:e9:05:12:6f:6c:52:0f:d5:30:f1:6b:
                    33:4b:17:4c:49:cd:de:a5:e2:d0:87:61:c0:6b:53:
                    ce:7d:5a:28:a8:8f:5d:f1:51:8a:b0:0a:e2:2f:b8:
                    7e:fb:eb:33:3e:8e:22:3a:1d:84:d3:fe:b0:d0:aa:
                    10:92:9a:0c:46:78:3f:28:f9:4a:7e:f7:3d:37:02:
                    67:b5:3c:33:19:a2:e9:fc:d0:9d:ff:d6:e7:81:3f:
                    9e:cf:64:14:01:52:0c:62:9c:d5:16:c7:57:a4:92:
                    0b:96:fa:49:02:55:2f:88:4b:7d:9a:44:7c:7a:57:
                    e0:04:ec:ca:01:f0:93:ee:8d:dc:4b:3d:12:e7:18:
                    3d:55:b6:77:c2:d4:66:67:38:2e:d9:dc:61:a1:94:
                    76:f6:31:fe:f6:a7:a9:a4:67:12:ec:6f:71:57:2b:
                    92:57:03:fe:87:d6:a9:f2:bb:0e:45:aa:2a:ea:72:
                    a8:2d:ef:67:e5:fd:e0:7a:4d:2a:a1:cd:c2:8f:55:
                    a1:fc:a7:aa:76:1c:85:d9:7b:35:21:11:5f:2d:55:
                    8d:e6:94:a6:c2:c2:4b:84:9b:d3:69:7c:10:6f:ab:
                    a7:ea:a0:34:ea:ab:75:fd:39:1a:01:49:3b:1e:d0:
                    a8:95:10:18:36:0c:38:e0:1c:47:2d:b5:17:b9:4f:
                    e5:43:0d:71:a6:48:3a:25:fd:d9:83:b6:45:0a:8f:
                    ec:a9:80:c5:f6:52:52:9b:74:58:67:83:4c:6a:d1:
                    4a:01:c8:17:74:15:5f:3f:c6:36:68:29:d2:45:ee:
                    18:06:1d:df:5e:17:fe:58:74:1e:92:92:a3:27:d9:
                    b8:bd:10:73:85:60:16:b2:6c:a5:85:e8:fc:67:2f:
                    71:0e:84:bb:dc:33:c0:d8:d3:5f:ab:21:36:30:12:
                    05:fd:f3:11:3d:b6:d8:92:ef:81:9c:9f:96:31:fd:
                    b1:0d:8c:a7:cf:dd:b3:83:6e:ca:4d:dc:a6:e3:d0:
                    91:56:49:82:30:c3:90:29:dd:18:fd:3b:24:d5:3b:
                    87:11:ce:e6:1a:c7:8b:2d:19:ed:05:86:7e:03:5d:
                    ec:de:ef
                Exponent: 65537 (0x10001)
        X509v3 extensions:
            X509v3 Basic Constraints: 
                CA:FALSE
            Netscape Comment: 
                Easy-RSA Generated Certificate
            X509v3 Subject Key Identifier: 
                52:DA:C6:08:A3:57:74:C6:E5:B1:DE:64:E7:87:9B:0D:37:46:A3:F2
            X509v3 Authority Key Identifier: 
                keyid:C5:BC:8B:54:88:B8:9B:A7:1F:34:EA:C7:05:45:7A:A3:D4:F9:B9:DD
                DirName:/C=TW/ST=KS/L=Kaohsiung/O=NSYSU/OU=lis/CN=NSYSU CA/name=nsysuvpn/emailAddress=lislib@mail.nsysu.edu.tw
                serial:7E:E2:E3:CF:D6:40:28:81:A6:D0:2C:DD:FF:09:DE:7F:F8:C4:76:B2

            X509v3 Extended Key Usage: 
                TLS Web Client Authentication
            X509v3 Key Usage: 
                Digital Signature
    Signature Algorithm: sha1WithRSAEncryption
         7e:b5:92:a2:20:5d:bf:af:21:6f:72:47:e9:83:38:99:73:e2:
         5d:da:c8:c7:dc:11:05:0e:8d:79:4e:42:4a:57:9a:69:29:90:
         66:fd:f0:1e:b5:83:62:ed:5c:2f:8c:84:5a:c0:c6:9a:7b:91:
         80:10:6d:8c:a2:10:e7:10:db:78:8b:87:d9:48:4c:6e:44:40:
         21:e8:e5:cf:ea:45:e1:76:27:c3:ed:43:cf:13:7d:69:b7:6f:
         c6:15:13:83:ef:1c:ff:58:16:f2:bd:80:f6:3e:6b:a2:2c:92:
         0e:2a:53:84:f5:48:9a:00:73:4b:0e:47:30:24:f6:d3:1f:ca:
         50:91:db:18:a4:9e:e3:ba:7d:52:72:84:ca:a2:25:59:5b:3a:
         ef:ae:03:fe:7a:77:e7:bd:da:d2:9c:8b:29:13:71:e5:33:a8:
         23:69:07:ff:d2:e9:77:64:17:77:d3:bc:8a:72:ef:39:4b:b2:
         91:04:f4:b6:b8:60:9f:1f:7b:05:de:76:56:a2:91:23:6f:a9:
         a0:05:9a:7c:4c:8c:d2:81:0b:3a:11:3a:f0:48:23:b0:00:4e:
         8a:72:aa:ad:c5:97:2d:a3:5d:82:00:8c:cd:ab:67:5f:4d:92:
         db:fc:c7:e8:4a:98:8d:2b:fe:29:59:1f:86:9e:1e:7e:f2:89:
         91:3c:bd:81:1b:7b:1a:c6:c7:8f:f4:36:bb:fe:b5:00:9c:3b:
         d0:51:5b:04:61:54:74:1d:5e:7f:d2:9d:d4:b0:4b:66:9d:ee:
         d3:70:90:c9:ac:3f:23:75:9d:b6:f8:eb:b0:af:eb:6a:20:61:
         4d:3f:2b:d8:56:18:9b:a3:27:95:1b:6e:0c:0d:fc:1a:3e:3f:
         31:38:ce:2e:28:4e:ec:3c:85:e0:23:44:ad:32:f2:f0:99:36:
         a3:c2:9d:17:81:38:be:a3:fa:5a:04:5b:cd:4d:eb:e1:db:c2:
         d9:0e:19:d3:5d:43:71:b5:97:c1:e1:fa:95:3a:81:c0:fd:ba:
         ac:0c:5d:f1:b6:f2:63:2c:4d:b6:17:03:90:12:ac:55:ed:d4:
         ee:92:87:30:5f:b4:64:56:3a:94:ad:6e:55:42:d3:13:cc:82:
         83:92:46:2b:94:c3:36:fb:9a:ed:1f:60:24:86:76:cc:e0:5f:
         60:89:77:e7:49:14:45:a3:33:84:96:6d:9c:a5:a7:e3:ac:f2:
         f4:6d:e0:b6:90:fa:9d:cb:b4:35:3e:23:2e:10:87:b6:9e:cb:
         fa:18:8e:e1:a2:ab:54:43:29:39:8a:8e:05:8b:6d:60:5c:7d:
         59:f4:ec:ac:09:e0:07:f5:c5:53:69:35:db:42:d9:7d:76:ca:
         86:55:7b:15:ba:7c:2a:b8
-----BEGIN CERTIFICATE-----
MIIG1DCCBLygAwIBAgIBAzANBgkqhkiG9w0BAQUFADCBmzELMAkGA1UEBhMCVFcx
CzAJBgNVBAgTAktTMRIwEAYDVQQHEwlLYW9oc2l1bmcxDjAMBgNVBAoTBU5TWVNV
MQwwCgYDVQQLEwNsaXMxETAPBgNVBAMTCE5TWVNVIENBMREwDwYDVQQpEwhuc3lz
dXZwbjEnMCUGCSqGSIb3DQEJARYYbGlzbGliQG1haWwubnN5c3UuZWR1LnR3MB4X
DTIxMDIyNjA4NDMyOVoXDTMxMDIyNDA4NDMyOVowXjELMAkGA1UEBhMCVFcxCzAJ
BgNVBAgTAktTMRIwEAYDVQQHEwlLYW9oc2l1bmcxDjAMBgNVBAoTBU5TWVNVMQww
CgYDVQQLEwNsaXMxEDAOBgNVBAMTB2NsaWVudDIwggIiMA0GCSqGSIb3DQEBAQUA
A4ICDwAwggIKAoICAQDBajEAQDRwz4LsmqtlK+bBHQCvuZ5uQ84DEbR7bpD2K7ES
g7dHBTexbXGnIe4BTutBBKlKdr04+3XZeu4TUScZj9i2kDhxb90g4SA/KQ84yWBh
MYmLofr7O+p2OkhRoiSPIR5Ym57OiiTu20zpBRJvbFIP1TDxazNLF0xJzd6l4tCH
YcBrU859Wiioj13xUYqwCuIvuH776zM+jiI6HYTT/rDQqhCSmgxGeD8o+Up+9z03
Ame1PDMZoun80J3/1ueBP57PZBQBUgxinNUWx1ekkguW+kkCVS+IS32aRHx6V+AE
7MoB8JPujdxLPRLnGD1VtnfC1GZnOC7Z3GGhlHb2Mf72p6mkZxLsb3FXK5JXA/6H
1qnyuw5Fqirqcqgt72fl/eB6TSqhzcKPVaH8p6p2HIXZezUhEV8tVY3mlKbCwkuE
m9NpfBBvq6fqoDTqq3X9ORoBSTse0KiVEBg2DDjgHEcttRe5T+VDDXGmSDol/dmD
tkUKj+ypgMX2UlKbdFhng0xq0UoByBd0FV8/xjZoKdJF7hgGHd9eF/5YdB6SkqMn
2bi9EHOFYBaybKWF6PxnL3EOhLvcM8DY01+rITYwEgX98xE9ttiS74Gcn5Yx/bEN
jKfP3bODbspN3Kbj0JFWSYIww5Ap3Rj9OyTVO4cRzuYax4stGe0Fhn4DXeze7wID
AQABo4IBXTCCAVkwCQYDVR0TBAIwADAtBglghkgBhvhCAQ0EIBYeRWFzeS1SU0Eg
R2VuZXJhdGVkIENlcnRpZmljYXRlMB0GA1UdDgQWBBRS2sYIo1d0xuWx3mTnh5sN
N0aj8jCB2wYDVR0jBIHTMIHQgBTFvItUiLibpx806scFRXqj1Pm53aGBoaSBnjCB
mzELMAkGA1UEBhMCVFcxCzAJBgNVBAgTAktTMRIwEAYDVQQHEwlLYW9oc2l1bmcx
DjAMBgNVBAoTBU5TWVNVMQwwCgYDVQQLEwNsaXMxETAPBgNVBAMTCE5TWVNVIENB
MREwDwYDVQQpEwhuc3lzdXZwbjEnMCUGCSqGSIb3DQEJARYYbGlzbGliQG1haWwu
bnN5c3UuZWR1LnR3ghR+4uPP1kAogabQLN3/Cd5/+MR2sjATBgNVHSUEDDAKBggr
BgEFBQcDAjALBgNVHQ8EBAMCB4AwDQYJKoZIhvcNAQEFBQADggIBAH61kqIgXb+v
IW9yR+mDOJlz4l3ayMfcEQUOjXlOQkpXmmkpkGb98B61g2LtXC+MhFrAxpp7kYAQ
bYyiEOcQ23iLh9lITG5EQCHo5c/qReF2J8PtQ88TfWm3b8YVE4PvHP9YFvK9gPY+
a6Iskg4qU4T1SJoAc0sORzAk9tMfylCR2xiknuO6fVJyhMqiJVlbOu+uA/56d+e9
2tKciykTceUzqCNpB//S6XdkF3fTvIpy7zlLspEE9La4YJ8fewXedlaikSNvqaAF
mnxMjNKBCzoROvBII7AATopyqq3Fly2jXYIAjM2rZ19Nktv8x+hKmI0r/ilZH4ae
Hn7yiZE8vYEbexrGx4/0Nrv+tQCcO9BRWwRhVHQdXn/SndSwS2ad7tNwkMmsPyN1
nbb467Cv62ogYU0/K9hWGJujJ5UbbgwN/Bo+PzE4zi4oTuw8heAjRK0y8vCZNqPC
nReBOL6j+loEW81N6+HbwtkOGdNdQ3G1l8Hh+pU6gcD9uqwMXfG28mMsTbYXA5AS
rFXt1O6ShzBftGRWOpStblVC0xPMgoOSRiuUwzb7mu0fYCSGdszgX2CJd+dJFEWj
M4SWbZylp+Os8vRt4LaQ+p3LtDU+Iy4Qh7aey/oYjuGiq1RDKTmKjgWLbWBcfVn0
7KwJ4Af1xVNpNdtC2X12yoZVexW6fCq4
-----END CERTIFICATE-----
