Certificate:
    Data:
        Version: 3 (0x2)
        Serial Number: 2 (0x2)
        Signature Algorithm: sha1WithRSAEncryption
        Issuer: C=TW, ST=KS, L=Kaohsiung, O=NSYSU, OU=lis, CN=NSYSU CA/name=nsysuvpn/emailAddress=lislib@mail.nsysu.edu.tw
        Validity
            Not Before: Feb 26 08:42:50 2021 GMT
            Not After : Feb 24 08:42:50 2031 GMT
        Subject: C=TW, ST=KS, L=Kaohsiung, O=NSYSU, OU=lis, CN=client1
        Subject Public Key Info:
            Public Key Algorithm: rsaEncryption
                RSA Public-Key: (4096 bit)
                Modulus:
                    00:e2:c8:56:ae:d1:6e:67:a7:aa:02:2c:13:4b:b4:
                    b2:87:43:ba:7a:3b:d3:91:27:cb:34:af:eb:50:f3:
                    05:83:ea:4e:a0:3c:69:24:c0:0a:cd:33:ca:7e:9e:
                    69:d3:48:7b:5f:c6:ff:b4:80:66:00:20:62:44:75:
                    4d:0e:b4:73:bf:ba:b1:e3:a6:74:e6:95:79:18:3e:
                    ea:cb:be:80:9c:64:a2:05:63:cb:2a:03:5f:02:52:
                    5b:21:7a:27:4c:ed:5d:93:ce:0a:72:26:57:a9:af:
                    8e:4a:85:57:94:72:6d:34:55:94:c4:5d:69:2c:31:
                    96:21:1d:e0:56:d9:32:f1:f6:2d:39:2b:29:c0:82:
                    83:57:ff:61:be:b8:99:7f:73:26:6a:3b:13:8b:2a:
                    88:3d:e8:c5:5f:24:5b:a3:d5:13:d2:6c:cc:e8:7b:
                    ff:eb:a7:2f:ec:50:24:ed:ad:af:fd:b0:d0:a6:0c:
                    a4:47:40:e3:fc:e1:b6:18:94:b8:37:01:e6:81:dd:
                    61:a7:16:a1:cc:b1:85:b1:6e:f8:76:20:22:17:aa:
                    ce:4e:78:1a:63:73:ac:be:c4:6b:fb:9d:d3:d8:3a:
                    a1:e8:e2:60:a3:1b:a8:d8:56:34:9d:30:c3:bd:69:
                    8d:b7:e1:91:b5:13:0f:5c:83:44:f8:c3:89:e6:7c:
                    d5:d2:59:01:a7:d6:00:3d:40:40:dd:4d:fe:bc:9e:
                    e0:15:86:3a:6a:c2:32:be:0b:24:56:64:b0:64:47:
                    9d:58:4e:6f:2b:e1:4e:68:42:2b:1d:f7:05:26:6e:
                    f5:d3:f2:05:93:72:11:8d:91:40:ef:04:64:0f:35:
                    ff:e1:b6:a1:87:2c:ba:50:e7:d9:2f:3c:dc:95:ec:
                    54:85:48:75:20:c5:bb:e7:4e:53:27:98:b6:df:7f:
                    e3:1b:54:0a:0b:3e:06:e9:79:78:9d:71:18:5b:96:
                    f3:30:f4:1b:47:27:7c:51:1e:f6:97:6d:91:ff:4e:
                    86:2e:6a:fd:7a:4c:6c:e4:52:a4:70:c9:27:aa:98:
                    67:94:12:dc:96:60:59:b2:65:a0:58:5d:e6:68:15:
                    3b:d9:56:13:47:c9:68:f4:70:ae:cc:32:15:8c:32:
                    b2:d6:3b:c5:77:12:fa:4b:19:cd:8d:d5:ea:a6:6f:
                    84:ee:b5:e3:ec:d5:82:64:67:7a:97:4c:b4:bc:24:
                    fe:c0:2a:b6:a2:d2:d4:5e:c9:a7:3d:ba:ff:19:fa:
                    6a:e2:c5:51:9b:af:a2:93:ef:df:e4:c6:73:29:62:
                    b1:73:d6:e7:af:0c:3c:07:5d:34:24:e0:b5:1e:e1:
                    4a:c1:e5:af:5a:38:16:3a:64:af:27:71:0c:15:e6:
                    5d:90:cf
                Exponent: 65537 (0x10001)
        X509v3 extensions:
            X509v3 Basic Constraints: 
                CA:FALSE
            Netscape Comment: 
                Easy-RSA Generated Certificate
            X509v3 Subject Key Identifier: 
                FA:B7:4A:50:6B:4C:54:5E:78:60:B1:65:50:07:A6:01:E1:16:17:7C
            X509v3 Authority Key Identifier: 
                keyid:C5:BC:8B:54:88:B8:9B:A7:1F:34:EA:C7:05:45:7A:A3:D4:F9:B9:DD
                DirName:/C=TW/ST=KS/L=Kaohsiung/O=NSYSU/OU=lis/CN=NSYSU CA/name=nsysuvpn/emailAddress=lislib@mail.nsysu.edu.tw
                serial:7E:E2:E3:CF:D6:40:28:81:A6:D0:2C:DD:FF:09:DE:7F:F8:C4:76:B2

            X509v3 Extended Key Usage: 
                TLS Web Client Authentication
            X509v3 Key Usage: 
                Digital Signature
    Signature Algorithm: sha1WithRSAEncryption
         56:2f:aa:0b:9e:05:43:53:fa:73:55:f6:34:c2:80:52:82:c6:
         84:d2:ba:02:f1:ed:f6:ee:fb:48:d9:8a:aa:67:40:f8:d2:31:
         91:b0:95:ff:88:aa:6c:f1:ee:d9:1c:af:68:e6:20:71:ff:d1:
         50:4e:96:f4:97:0e:16:c2:46:a4:24:68:69:4b:0f:14:59:6a:
         b8:8d:56:fa:1c:47:70:c7:7a:64:7f:c7:a8:fa:f4:4d:9f:f8:
         d4:4e:f3:ab:e0:6b:14:ef:94:9b:2c:0b:b7:09:c3:cd:5e:2e:
         ee:9c:be:63:7f:4f:23:2d:4d:2e:57:df:86:00:44:1a:9a:0f:
         5f:4a:af:44:a6:8e:f5:05:42:fe:1c:b7:39:81:6f:f9:7e:a5:
         3c:25:70:f9:ef:6d:ad:40:d5:1e:b8:30:ff:6a:d2:99:b2:39:
         12:34:c5:54:bc:ec:a9:ca:35:10:35:c8:ec:d5:ca:6f:f3:a8:
         2a:9a:19:99:57:a6:f8:ba:19:f2:92:7e:12:fe:50:bc:0a:3c:
         21:85:dc:b7:a9:f7:c7:a9:7f:b3:aa:d0:5e:6b:57:93:ca:3e:
         5e:d7:b5:b5:d4:9f:a2:32:44:20:2d:16:9f:f5:fc:6e:44:cf:
         d3:da:bb:98:b5:91:bb:8a:fd:bc:eb:fa:2c:fd:0d:b9:5b:da:
         cf:70:b4:11:19:f4:d8:2f:b5:84:d8:41:33:e4:29:d0:7f:9c:
         e1:f2:d0:0f:27:0f:2f:53:28:6f:c1:9d:28:55:a8:8c:7e:ef:
         0b:2b:31:f8:75:5b:2c:30:72:a7:72:fc:59:6c:2a:a6:a5:60:
         2a:d2:e1:ef:2d:a5:cb:36:2d:08:48:12:90:57:ef:a1:86:5e:
         ce:ee:6f:c4:0b:f6:1e:61:69:b3:1c:23:cc:84:c7:9c:05:1d:
         1d:24:25:88:7a:33:1c:19:56:30:6a:79:ce:4d:87:12:c9:83:
         0d:9f:ac:4c:35:80:84:84:2a:2e:7d:19:52:9f:1e:ce:97:d8:
         f0:14:e2:db:04:ec:1e:e3:a4:50:ce:b1:b8:8c:82:a0:42:d4:
         02:1b:17:92:d3:e0:1d:69:08:74:40:29:f1:1f:1e:ec:70:47:
         7b:35:a4:24:d4:a9:d4:a5:3f:06:cb:05:45:10:c3:4e:b0:57:
         a5:33:93:b3:31:da:11:a4:6b:80:a9:6c:05:ed:d5:62:f2:c3:
         6e:8e:d5:fd:2e:69:07:e7:70:77:b8:81:88:72:d7:cf:0b:13:
         58:57:6c:47:c1:d9:ba:06:e7:26:eb:b2:82:44:fb:f6:a4:3a:
         b2:d0:7f:e1:10:08:29:ed:61:6c:a9:f3:ef:53:8d:6e:7b:e2:
         ec:9e:41:09:00:a4:cc:6a
-----BEGIN CERTIFICATE-----
MIIG1DCCBLygAwIBAgIBAjANBgkqhkiG9w0BAQUFADCBmzELMAkGA1UEBhMCVFcx
CzAJBgNVBAgTAktTMRIwEAYDVQQHEwlLYW9oc2l1bmcxDjAMBgNVBAoTBU5TWVNV
MQwwCgYDVQQLEwNsaXMxETAPBgNVBAMTCE5TWVNVIENBMREwDwYDVQQpEwhuc3lz
dXZwbjEnMCUGCSqGSIb3DQEJARYYbGlzbGliQG1haWwubnN5c3UuZWR1LnR3MB4X
DTIxMDIyNjA4NDI1MFoXDTMxMDIyNDA4NDI1MFowXjELMAkGA1UEBhMCVFcxCzAJ
BgNVBAgTAktTMRIwEAYDVQQHEwlLYW9oc2l1bmcxDjAMBgNVBAoTBU5TWVNVMQww
CgYDVQQLEwNsaXMxEDAOBgNVBAMTB2NsaWVudDEwggIiMA0GCSqGSIb3DQEBAQUA
A4ICDwAwggIKAoICAQDiyFau0W5np6oCLBNLtLKHQ7p6O9ORJ8s0r+tQ8wWD6k6g
PGkkwArNM8p+nmnTSHtfxv+0gGYAIGJEdU0OtHO/urHjpnTmlXkYPurLvoCcZKIF
Y8sqA18CUlsheidM7V2TzgpyJlepr45KhVeUcm00VZTEXWksMZYhHeBW2TLx9i05
KynAgoNX/2G+uJl/cyZqOxOLKog96MVfJFuj1RPSbMzoe//rpy/sUCTtra/9sNCm
DKRHQOP84bYYlLg3AeaB3WGnFqHMsYWxbvh2ICIXqs5OeBpjc6y+xGv7ndPYOqHo
4mCjG6jYVjSdMMO9aY234ZG1Ew9cg0T4w4nmfNXSWQGn1gA9QEDdTf68nuAVhjpq
wjK+CyRWZLBkR51YTm8r4U5oQisd9wUmbvXT8gWTchGNkUDvBGQPNf/htqGHLLpQ
59kvPNyV7FSFSHUgxbvnTlMnmLbff+MbVAoLPgbpeXidcRhblvMw9BtHJ3xRHvaX
bZH/ToYuav16TGzkUqRwySeqmGeUEtyWYFmyZaBYXeZoFTvZVhNHyWj0cK7MMhWM
MrLWO8V3EvpLGc2N1eqmb4TutePs1YJkZ3qXTLS8JP7AKrai0tReyac9uv8Z+mri
xVGbr6KT79/kxnMpYrFz1uevDDwHXTQk4LUe4UrB5a9aOBY6ZK8ncQwV5l2QzwID
AQABo4IBXTCCAVkwCQYDVR0TBAIwADAtBglghkgBhvhCAQ0EIBYeRWFzeS1SU0Eg
R2VuZXJhdGVkIENlcnRpZmljYXRlMB0GA1UdDgQWBBT6t0pQa0xUXnhgsWVQB6YB
4RYXfDCB2wYDVR0jBIHTMIHQgBTFvItUiLibpx806scFRXqj1Pm53aGBoaSBnjCB
mzELMAkGA1UEBhMCVFcxCzAJBgNVBAgTAktTMRIwEAYDVQQHEwlLYW9oc2l1bmcx
DjAMBgNVBAoTBU5TWVNVMQwwCgYDVQQLEwNsaXMxETAPBgNVBAMTCE5TWVNVIENB
MREwDwYDVQQpEwhuc3lzdXZwbjEnMCUGCSqGSIb3DQEJARYYbGlzbGliQG1haWwu
bnN5c3UuZWR1LnR3ghR+4uPP1kAogabQLN3/Cd5/+MR2sjATBgNVHSUEDDAKBggr
BgEFBQcDAjALBgNVHQ8EBAMCB4AwDQYJKoZIhvcNAQEFBQADggIBAFYvqgueBUNT
+nNV9jTCgFKCxoTSugLx7fbu+0jZiqpnQPjSMZGwlf+Iqmzx7tkcr2jmIHH/0VBO
lvSXDhbCRqQkaGlLDxRZariNVvocR3DHemR/x6j69E2f+NRO86vgaxTvlJssC7cJ
w81eLu6cvmN/TyMtTS5X34YARBqaD19Kr0SmjvUFQv4ctzmBb/l+pTwlcPnvba1A
1R64MP9q0pmyORI0xVS87KnKNRA1yOzVym/zqCqaGZlXpvi6GfKSfhL+ULwKPCGF
3Lep98epf7Oq0F5rV5PKPl7XtbXUn6IyRCAtFp/1/G5Ez9Pau5i1kbuK/bzr+iz9
Dblb2s9wtBEZ9NgvtYTYQTPkKdB/nOHy0A8nDy9TKG/BnShVqIx+7wsrMfh1Wyww
cqdy/FlsKqalYCrS4e8tpcs2LQhIEpBX76GGXs7ub8QL9h5habMcI8yEx5wFHR0k
JYh6MxwZVjBqec5NhxLJgw2frEw1gISEKi59GVKfHs6X2PAU4tsE7B7jpFDOsbiM
gqBC1AIbF5LT4B1pCHRAKfEfHuxwR3s1pCTUqdSlPwbLBUUQw06wV6Uzk7Mx2hGk
a4CpbAXt1WLyw26O1f0uaQfncHe4gYhy188LE1hXbEfB2boG5ybrsoJE+/akOrLQ
f+EQCCntYWyp8+9TjW574uyeQQkApMxq
-----END CERTIFICATE-----
